target datalayout = "e-m:e-p270:32:32-p271:32:32-p272:64:64-i64:64-i128:128-f80:128-n8:16:32:64-S128"
target triple = "x86_64-pc-linux-gnu"

; Function Attrs: nounwind uwtable
define internal ptr @Unroll4WordsReverse(ptr noundef %0, ptr noundef %1, ptr noundef %2, i32 noundef %3) #0 {
  %5 = alloca ptr, align 8
  %6 = alloca ptr, align 8
  %7 = alloca ptr, align 8
  %8 = alloca i32, align 4
  store ptr %0, ptr %5, align 8
  store ptr %1, ptr %6, align 8
  store ptr %2, ptr %7, align 8
  store i32 %3, ptr %8, align 4
  %9 = load ptr, ptr %7, align 8
  %10 = load i16, ptr %9, align 2
  %11 = zext i16 %10 to i32
  %12 = sub nsw i32 65535, %11
  %13 = trunc i32 %12 to i16
  %14 = load ptr, ptr %6, align 8
  %15 = getelementptr inbounds i16, ptr %14, i64 0
  store i16 %13, ptr %15, align 2
  %16 = load ptr, ptr %7, align 8
  %17 = getelementptr inbounds i8, ptr %16, i64 2
  store ptr %17, ptr %7, align 8
  %18 = load ptr, ptr %7, align 8
  %19 = load i16, ptr %18, align 2
  %20 = zext i16 %19 to i32
  %21 = sub nsw i32 65535, %20
  %22 = trunc i32 %21 to i16
  %23 = load ptr, ptr %6, align 8
  %24 = getelementptr inbounds i16, ptr %23, i64 1
  store i16 %22, ptr %24, align 2
  %25 = load ptr, ptr %7, align 8
  %26 = getelementptr inbounds i8, ptr %25, i64 2
  store ptr %26, ptr %7, align 8
  %27 = load ptr, ptr %7, align 8
  %28 = load i16, ptr %27, align 2
  %29 = zext i16 %28 to i32
  %30 = sub nsw i32 65535, %29
  %31 = trunc i32 %30 to i16
  %32 = load ptr, ptr %6, align 8
  %33 = getelementptr inbounds i16, ptr %32, i64 2
  store i16 %31, ptr %33, align 2
  %34 = load ptr, ptr %7, align 8
  %35 = getelementptr inbounds i8, ptr %34, i64 2
  store ptr %35, ptr %7, align 8
  %36 = load ptr, ptr %7, align 8
  %37 = load i16, ptr %36, align 2
  %38 = zext i16 %37 to i32
  %39 = sub nsw i32 65535, %38
  %40 = trunc i32 %39 to i16
  %41 = load ptr, ptr %6, align 8
  %42 = getelementptr inbounds i16, ptr %41, i64 3
  store i16 %40, ptr %42, align 2
  %43 = load ptr, ptr %7, align 8
  %44 = getelementptr inbounds i8, ptr %43, i64 2
  store ptr %44, ptr %7, align 8
  %45 = load ptr, ptr %7, align 8
  ret ptr %45
}