; Function Attrs: mustprogress nofree norecurse nosync nounwind willreturn memory(argmem: readwrite) uwtable
define internal nonnull ptr @Unroll4WordsReverse(ptr nocapture readnone %0, ptr nocapture noundef writeonly %1, ptr noundef readonly %2, i32 %3) #3 {
  %5 = load i16, ptr %2, align 2
  %6 = xor i16 %5, -1
  store i16 %6, ptr %1, align 2
  %7 = getelementptr inbounds i8, ptr %2, i64 2
  %8 = load i16, ptr %7, align 2
  %9 = xor i16 %8, -1
  %10 = getelementptr inbounds i8, ptr %1, i64 2
  store i16 %9, ptr %10, align 2
  %11 = getelementptr inbounds i8, ptr %2, i64 4
  %12 = load i16, ptr %11, align 2
  %13 = xor i16 %12, -1
  %14 = getelementptr inbounds i8, ptr %1, i64 4
  store i16 %13, ptr %14, align 2
  %15 = getelementptr inbounds i8, ptr %2, i64 6
  %16 = load i16, ptr %15, align 2
  %17 = xor i16 %16, -1
  %18 = getelementptr inbounds i8, ptr %1, i64 6
  store i16 %17, ptr %18, align 2
  %19 = getelementptr inbounds i8, ptr %2, i64 8
  ret ptr %19
}